; ModuleID = 'source-C-CXX/25/982.c'
source_filename = "source-C-CXX/25/982.c"
target datalayout = "e-m:e-p270:32:32-p271:32:32-p272:64:64-i64:64-f80:128-n8:16:32:64-S128"
target triple = "x86_64-pc-linux-gnu"

; Function Attrs: nounwind sspstrong uwtable
define dso_local i32 @main() local_unnamed_addr #0 {
  %1 = alloca [100 x i8], align 16
  %2 = getelementptr inbounds [100 x i8], [100 x i8]* %1, i64 0, i64 0
  call void @llvm.lifetime.start.p0i8(i64 100, i8* nonnull %2) #5
  %3 = call i32 (i8*, ...) bitcast (i32 (...)* @gets to i32 (i8*, ...)*)(i8* nonnull %2) #5
  %4 = call i64 @strlen(i8* noundef nonnull %2) #6
  %5 = trunc i64 %4 to i32
  %6 = load i8, i8* %2, align 16, !tbaa !5
  %7 = sext i8 %6 to i32
  %8 = call i32 @putchar(i32 %7)
  %9 = icmp sgt i32 %5, 1
  br i1 %9, label %10, label %30

10:                                               ; preds = %0
  %11 = and i64 %4, 4294967295
  br label %12

12:                                               ; preds = %10, %27
  %13 = phi i64 [ 1, %10 ], [ %28, %27 ]
  %14 = getelementptr inbounds [100 x i8], [100 x i8]* %1, i64 0, i64 %13
  %15 = load i8, i8* %14, align 1, !tbaa !5
  %16 = icmp eq i8 %15, 32
  br i1 %16, label %19, label %17

17:                                               ; preds = %12
  %18 = sext i8 %15 to i32
  br label %24

19:                                               ; preds = %12
  %20 = add nsw i64 %13, -1
  %21 = getelementptr inbounds [100 x i8], [100 x i8]* %1, i64 0, i64 %20
  %22 = load i8, i8* %21, align 1, !tbaa !5
  %23 = icmp eq i8 %22, 32
  br i1 %23, label %27, label %24

24:                                               ; preds = %19, %17
  %25 = phi i32 [ %18, %17 ], [ 32, %19 ]
  %26 = call i32 @putchar(i32 %25)
  br label %27

27:                                               ; preds = %24, %19
  %28 = add nuw nsw i64 %13, 1
  %29 = icmp eq i64 %28, %11
  br i1 %29, label %30, label %12, !llvm.loop !8

30:                                               ; preds = %27, %0
  call void @llvm.lifetime.end.p0i8(i64 100, i8* nonnull %2) #5
  ret i32 0
}

; Function Attrs: argmemonly mustprogress nofree nosync nounwind willreturn
declare void @llvm.lifetime.start.p0i8(i64 immarg, i8* nocapture) #1

declare i32 @gets(...) local_unnamed_addr #2

; Function Attrs: argmemonly mustprogress nofree nounwind readonly willreturn
declare i64 @strlen(i8* nocapture) local_unnamed_addr #3

; Function Attrs: argmemonly mustprogress nofree nosync nounwind willreturn
declare void @llvm.lifetime.end.p0i8(i64 immarg, i8* nocapture) #1

; Function Attrs: nofree nounwind
declare noundef i32 @putchar(i32 noundef) local_unnamed_addr #4


!llvm.module.flags = !{!0, !1, !2, !3}
!llvm.ident = !{!4}

!0 = !{i32 1, !"wchar_size", i32 4}
!1 = !{i32 7, !"PIC Level", i32 2}
!2 = !{i32 7, !"PIE Level", i32 2}
!3 = !{i32 7, !"uwtable", i32 1}
!4 = !{!"clang version 13.0.0"}
!5 = !{!6, !6, i64 0}
!6 = !{!"omnipotent char", !7, i64 0}
!7 = !{!"Simple C/C++ TBAA"}
!8 = distinct !{!8, !9}
!9 = !{!"llvm.loop.mustprogress"}
